target datalayout = "e-m:e-p270:32:32-p271:32:32-p272:64:64-i64:64-i128:128-f80:128-n8:16:32:64-S128"
target triple = "x86_64-pc-linux-gnu"

%struct.ARKodeARKStepMemRec = type { ptr, ptr, i32, i32, i32, i32, i32, i32, ptr, ptr, ptr, ptr, ptr, ptr, i32, i32, i32, i32, ptr, ptr, ptr, ptr, i32, ptr, double, double, double, double, i32, double, double, double, double, double, double, i32, i64, i32, i32, i32, ptr, ptr, ptr, ptr, ptr, ptr, i32, ptr, ptr, ptr, ptr, ptr, ptr, i32, i32, i64, i64, i64, i64, i64, ptr, ptr, i32, i32, i32, double, double, ptr, i32, ptr, ptr }
%struct.ARKodeMemRec = type { ptr, double, ptr, i32, i32, double, double, ptr, i32, double, ptr, i32, i32, ptr, ptr, i32, ptr, ptr, i32, ptr, ptr, ptr, ptr, ptr, ptr, ptr, ptr, ptr, ptr, ptr, ptr, ptr, ptr, ptr, i32, ptr, ptr, i32, ptr, i32, ptr, ptr, ptr, ptr, ptr, ptr, ptr, ptr, ptr, ptr, ptr, ptr, ptr, ptr, ptr, ptr, ptr, ptr, ptr, ptr, ptr, ptr, ptr, ptr, ptr, ptr, i32, ptr, ptr, ptr, ptr, ptr, ptr, ptr, i32, ptr, ptr, ptr, i32, ptr, ptr, ptr, ptr, ptr, ptr, ptr, i32, i32, i32, i32, double, double, double, double, double, double, double, double, double, double, i32, ptr, i64, i32, i32, i32, i32, i64, i64, i32, i64, i64, i64, i64, i64, i64, i64, double, double, double, double, double, i32, double, double, i32, i32, i32, i32, i32, i32, i32, i32, ptr, i32, ptr, ptr, ptr, ptr, i32, i32, i32 }

@.str = private unnamed_addr constant [126 x i8] c"generated/home/dtcxzyw/WorkSpace/Projects/compilers/llvm-opt-benchmark/bench/sundials/sundials/src/arkode/arkode_arkstep_io.c\00", align 1
@.str.1 = private unnamed_addr constant [88 x i8] c"Cannot specify that method is explicit without providing a function pointer to fe(t,y).\00", align 1
@.str.2 = private unnamed_addr constant [88 x i8] c"Cannot specify that method is implicit without providing a function pointer to fi(t,y).\00", align 1
@__func__.ARKStepSetImEx = private unnamed_addr constant [15 x i8] c"ARKStepSetImEx\00", align 1

; Function Attrs: nounwind uwtable
define i32 @ARKStepSetImEx(ptr noundef %0) #0 {
  %2 = alloca i32, align 4
  %3 = alloca ptr, align 8
  %4 = alloca ptr, align 8
  %5 = alloca ptr, align 8
  %6 = alloca i32, align 4
  %7 = alloca i32, align 4
  store ptr %0, ptr %3, align 8, !tbaa !3
  call void @llvm.lifetime.start.p0(i64 8, ptr %4) #4
  call void @llvm.lifetime.start.p0(i64 8, ptr %5) #4
  call void @llvm.lifetime.start.p0(i64 4, ptr %6) #4
  %8 = load ptr, ptr %3, align 8, !tbaa !3
  %9 = call i32 @arkStep_AccessARKODEStepMem(ptr noundef %8, ptr noundef @__func__.ARKStepSetImEx, ptr noundef %4, ptr noundef %5)
  store i32 %9, ptr %6, align 4, !tbaa !7
  %10 = load i32, ptr %6, align 4, !tbaa !7
  %11 = icmp ne i32 %10, 0
  br i1 %11, label %12, label %14

12:                                               ; preds = %1
  %13 = load i32, ptr %6, align 4, !tbaa !7
  store i32 %13, ptr %2, align 4
  store i32 1, ptr %7, align 4
  br label %72

14:                                               ; preds = %1
  %15 = load ptr, ptr %5, align 8, !tbaa !9
  %16 = getelementptr inbounds nuw %struct.ARKodeARKStepMemRec, ptr %15, i32 0, i32 0
  %17 = load ptr, ptr %16, align 8, !tbaa !11
  %18 = icmp eq ptr %17, null
  br i1 %18, label %19, label %21

19:                                               ; preds = %14
  %20 = load ptr, ptr %4, align 8, !tbaa !20
  call void (ptr, i32, i32, ptr, ptr, ptr, ...) @arkProcessError(ptr noundef %20, i32 noundef -22, i32 noundef 128, ptr noundef @__func__.ARKStepSetImEx, ptr noundef @.str, ptr noundef @.str.1)
  store i32 -22, ptr %2, align 4
  store i32 1, ptr %7, align 4
  br label %72

21:                                               ; preds = %14
  %22 = load ptr, ptr %5, align 8, !tbaa !9
  %23 = getelementptr inbounds nuw %struct.ARKodeARKStepMemRec, ptr %22, i32 0, i32 1
  %24 = load ptr, ptr %23, align 8, !tbaa !24
  %25 = icmp eq ptr %24, null
  br i1 %25, label %26, label %28

26:                                               ; preds = %21
  %27 = load ptr, ptr %4, align 8, !tbaa !20
  call void (ptr, i32, i32, ptr, ptr, ptr, ...) @arkProcessError(ptr noundef %27, i32 noundef -22, i32 noundef 134, ptr noundef @__func__.ARKStepSetImEx, ptr noundef @.str, ptr noundef @.str.2)
  store i32 -22, ptr %2, align 4
  store i32 1, ptr %7, align 4
  br label %72

28:                                               ; preds = %21
  %29 = load ptr, ptr %5, align 8, !tbaa !9
  %30 = getelementptr inbounds nuw %struct.ARKodeARKStepMemRec, ptr %29, i32 0, i32 5
  store i32 1, ptr %30, align 4, !tbaa !22
  %31 = load ptr, ptr %5, align 8, !tbaa !9
  %32 = getelementptr inbounds nuw %struct.ARKodeARKStepMemRec, ptr %31, i32 0, i32 6
  store i32 1, ptr %32, align 8, !tbaa !23
  %33 = load ptr, ptr %4, align 8, !tbaa !20
  %34 = getelementptr inbounds nuw %struct.ARKodeMemRec, ptr %33, i32 0, i32 12
  %35 = load i32, ptr %34, align 4, !tbaa !25
  %36 = icmp ne i32 %35, 0
  br i1 %36, label %71, label %37

37:                                               ; preds = %28
  %38 = load ptr, ptr %4, align 8, !tbaa !20
  %39 = getelementptr inbounds nuw %struct.ARKodeMemRec, ptr %38, i32 0, i32 3
  %40 = load i32, ptr %39, align 8, !tbaa !32
  %41 = icmp eq i32 %40, 1
  br i1 %41, label %42, label %56

42:                                               ; preds = %37
  %43 = load ptr, ptr %4, align 8, !tbaa !20
  %44 = getelementptr inbounds nuw %struct.ARKodeMemRec, ptr %43, i32 0, i32 7
  %45 = load ptr, ptr %44, align 8, !tbaa !33
  %46 = icmp ne ptr %45, null
  br i1 %46, label %47, label %56

47:                                               ; preds = %42
  %48 = load ptr, ptr %4, align 8, !tbaa !20
  %49 = load ptr, ptr %4, align 8, !tbaa !20
  %50 = getelementptr inbounds nuw %struct.ARKodeMemRec, ptr %49, i32 0, i32 5
  %51 = load double, ptr %50, align 8, !tbaa !34
  %52 = load ptr, ptr %4, align 8, !tbaa !20
  %53 = getelementptr inbounds nuw %struct.ARKodeMemRec, ptr %52, i32 0, i32 7
  %54 = load ptr, ptr %53, align 8, !tbaa !33
  %55 = call i32 @ARKodeSVtolerances(ptr noundef %48, double noundef %51, ptr noundef %54)
  store i32 %55, ptr %6, align 4, !tbaa !7
  br label %65

56:                                               ; preds = %42, %37
  %57 = load ptr, ptr %4, align 8, !tbaa !20
  %58 = load ptr, ptr %4, align 8, !tbaa !20
  %59 = getelementptr inbounds nuw %struct.ARKodeMemRec, ptr %58, i32 0, i32 5
  %60 = load double, ptr %59, align 8, !tbaa !34
  %61 = load ptr, ptr %4, align 8, !tbaa !20
  %62 = getelementptr inbounds nuw %struct.ARKodeMemRec, ptr %61, i32 0, i32 6
  %63 = load double, ptr %62, align 8, !tbaa !35
  %64 = call i32 @ARKodeSStolerances(ptr noundef %57, double noundef %60, double noundef %63)
  store i32 %64, ptr %6, align 4, !tbaa !7
  br label %65

65:                                               ; preds = %56, %47
  %66 = load i32, ptr %6, align 4, !tbaa !7
  %67 = icmp ne i32 %66, 0
  br i1 %67, label %68, label %70

68:                                               ; preds = %65
  %69 = load i32, ptr %6, align 4, !tbaa !7
  store i32 %69, ptr %2, align 4
  store i32 1, ptr %7, align 4
  br label %72

70:                                               ; preds = %65
  br label %71

71:                                               ; preds = %70, %28
  store i32 0, ptr %2, align 4
  store i32 1, ptr %7, align 4
  br label %72

72:                                               ; preds = %71, %68, %26, %19, %12
  call void @llvm.lifetime.end.p0(i64 4, ptr %6) #4
  call void @llvm.lifetime.end.p0(i64 8, ptr %5) #4
  call void @llvm.lifetime.end.p0(i64 8, ptr %4) #4
  %73 = load i32, ptr %2, align 4
  ret i32 %73
}