; Function Attrs: nounwind uwtable
define i32 @ARKStepSetImEx(ptr noundef %0) local_unnamed_addr #0 {
  %2 = alloca ptr, align 8
  %3 = alloca ptr, align 8
  call void @llvm.lifetime.start.p0(i64 8, ptr nonnull %2) #5
  call void @llvm.lifetime.start.p0(i64 8, ptr nonnull %3) #5
  %4 = call i32 @arkStep_AccessARKODEStepMem(ptr noundef %0, ptr noundef nonnull @__func__.ARKStepSetImEx, ptr noundef nonnull %2, ptr noundef nonnull %3) #5
  %.not = icmp eq i32 %4, 0
  br i1 %.not, label %5, label %42

5:                                                ; preds = %1
  %6 = load ptr, ptr %3, align 8, !tbaa !3
  %7 = load ptr, ptr %6, align 8, !tbaa !8
  %8 = icmp eq ptr %7, null
  br i1 %8, label %9, label %11

9:                                                ; preds = %5
  %10 = load ptr, ptr %2, align 8, !tbaa !18
  call void (ptr, i32, i32, ptr, ptr, ptr, ...) @arkProcessError(ptr noundef %10, i32 noundef -22, i32 noundef 128, ptr noundef nonnull @__func__.ARKStepSetImEx, ptr noundef nonnull @.str, ptr noundef nonnull @.str.1) #5
  br label %42

11:                                               ; preds = %5
  %12 = getelementptr inbounds nuw i8, ptr %6, i64 8
  %13 = load ptr, ptr %12, align 8, !tbaa !22
  %14 = icmp eq ptr %13, null
  br i1 %14, label %15, label %17

15:                                               ; preds = %11
  %16 = load ptr, ptr %2, align 8, !tbaa !18
  call void (ptr, i32, i32, ptr, ptr, ptr, ...) @arkProcessError(ptr noundef %16, i32 noundef -22, i32 noundef 134, ptr noundef nonnull @__func__.ARKStepSetImEx, ptr noundef nonnull @.str, ptr noundef nonnull @.str.2) #5
  br label %42

17:                                               ; preds = %11
  %18 = getelementptr inbounds nuw i8, ptr %6, i64 28
  store i32 1, ptr %18, align 4, !tbaa !20
  %19 = getelementptr inbounds nuw i8, ptr %6, i64 32
  store i32 1, ptr %19, align 8, !tbaa !21
  %20 = load ptr, ptr %2, align 8, !tbaa !18
  %21 = getelementptr inbounds nuw i8, ptr %20, i64 84
  %22 = load i32, ptr %21, align 4, !tbaa !23
  %.not8 = icmp eq i32 %22, 0
  br i1 %.not8, label %23, label %41

23:                                               ; preds = %17
  %24 = getelementptr inbounds nuw i8, ptr %20, i64 24
  %25 = load i32, ptr %24, align 8, !tbaa !30
  %26 = icmp eq i32 %25, 1
  br i1 %26, label %27, label %34

27:                                               ; preds = %23
  %28 = getelementptr inbounds nuw i8, ptr %20, i64 48
  %29 = load ptr, ptr %28, align 8, !tbaa !31
  %.not9 = icmp eq ptr %29, null
  br i1 %.not9, label %34, label %30

30:                                               ; preds = %27
  %31 = getelementptr inbounds nuw i8, ptr %20, i64 32
  %32 = load double, ptr %31, align 8, !tbaa !32
  %33 = call i32 @ARKodeSVtolerances(ptr noundef nonnull %20, double noundef %32, ptr noundef nonnull %29) #5
  br label %40

34:                                               ; preds = %27, %23
  %35 = getelementptr inbounds nuw i8, ptr %20, i64 32
  %36 = load double, ptr %35, align 8, !tbaa !32
  %37 = getelementptr inbounds nuw i8, ptr %20, i64 40
  %38 = load double, ptr %37, align 8, !tbaa !33
  %39 = call i32 @ARKodeSStolerances(ptr noundef nonnull %20, double noundef %36, double noundef %38) #5
  br label %40

40:                                               ; preds = %34, %30
  %.0 = phi i32 [ %33, %30 ], [ %39, %34 ]
  %.not10 = icmp eq i32 %.0, 0
  br i1 %.not10, label %41, label %42

41:                                               ; preds = %40, %17
  br label %42

42:                                               ; preds = %40, %1, %41, %15, %9
  %.05 = phi i32 [ -22, %9 ], [ -22, %15 ], [ 0, %41 ], [ %4, %1 ], [ %.0, %40 ]
  call void @llvm.lifetime.end.p0(i64 8, ptr nonnull %3) #5
  call void @llvm.lifetime.end.p0(i64 8, ptr nonnull %2) #5
  ret i32 %.05
}